; Function Attrs: mustprogress uwtable
define noundef i32 @_ZN7testing8internal17Int32FromEnvOrDieEPKci(ptr noundef %0, i32 noundef %1) local_unnamed_addr #4 personality ptr @__gxx_personality_v0 {
  %3 = alloca i32, align 4
  %4 = alloca %"class.testing::Message", align 8
  %5 = tail call noundef ptr @getenv(ptr noundef %0) #56
  %6 = icmp eq ptr %5, null
  br i1 %6, label %35, label %7

7:                                                ; preds = %2
  call void @llvm.lifetime.start.p0(i64 4, ptr nonnull %3) #56
  call void @llvm.lifetime.start.p0(i64 8, ptr nonnull %4) #56
  call void @_ZN7testing7MessageC1Ev(ptr noundef nonnull align 8 dereferenceable(8) %4)
  %8 = load ptr, ptr %4, align 8, !tbaa !20
  %9 = getelementptr inbounds nuw i8, ptr %8, i64 16
  %10 = invoke noundef nonnull align 8 dereferenceable(8) ptr @_ZSt16__ostream_insertIcSt11char_traitsIcEERSt13basic_ostreamIT_T0_ES6_PKS3_l(ptr noundef nonnull align 8 dereferenceable(8) %9, ptr noundef nonnull @.str.289, i64 noundef 34)
          to label %_ZN7testing7MessagelsIA35_cEERS0_RKT_.exit unwind label %26

_ZN7testing7MessagelsIA35_cEERS0_RKT_.exit:       ; preds = %7
  %11 = icmp eq ptr %0, null
  %12 = load ptr, ptr %4, align 8, !tbaa !20
  %13 = getelementptr inbounds nuw i8, ptr %12, i64 16
  br i1 %11, label %_ZStlsISt11char_traitsIcEERSt13basic_ostreamIcT_ES5_PKc.exit.i.invoke, label %_ZStlsISt11char_traitsIcEERSt13basic_ostreamIcT_ES5_PKc.exit.i

_ZStlsISt11char_traitsIcEERSt13basic_ostreamIcT_ES5_PKc.exit.i: ; preds = %_ZN7testing7MessagelsIA35_cEERS0_RKT_.exit
  %14 = call noundef i64 @strlen(ptr noundef nonnull dereferenceable(1) %0) #56
  br label %_ZStlsISt11char_traitsIcEERSt13basic_ostreamIcT_ES5_PKc.exit.i.invoke

_ZStlsISt11char_traitsIcEERSt13basic_ostreamIcT_ES5_PKc.exit.i.invoke: ; preds = %_ZN7testing7MessagelsIA35_cEERS0_RKT_.exit, %_ZStlsISt11char_traitsIcEERSt13basic_ostreamIcT_ES5_PKc.exit.i
  %15 = phi ptr [ %0, %_ZStlsISt11char_traitsIcEERSt13basic_ostreamIcT_ES5_PKc.exit.i ], [ @.str.101, %_ZN7testing7MessagelsIA35_cEERS0_RKT_.exit ]
  %16 = phi i64 [ %14, %_ZStlsISt11char_traitsIcEERSt13basic_ostreamIcT_ES5_PKc.exit.i ], [ 6, %_ZN7testing7MessagelsIA35_cEERS0_RKT_.exit ]
  %17 = invoke noundef nonnull align 8 dereferenceable(8) ptr @_ZSt16__ostream_insertIcSt11char_traitsIcEERSt13basic_ostreamIT_T0_ES6_PKS3_l(ptr noundef nonnull align 8 dereferenceable(8) %13, ptr noundef nonnull %15, i64 noundef %16)
          to label %_ZN7testing7MessagelsIKcEERS0_RKPT_.exit unwind label %26

_ZN7testing7MessagelsIKcEERS0_RKPT_.exit:         ; preds = %_ZStlsISt11char_traitsIcEERSt13basic_ostreamIcT_ES5_PKc.exit.i.invoke
  %18 = invoke noundef zeroext i1 @_ZN7testing8internal10ParseInt32ERKNS_7MessageEPKcPi(ptr noundef nonnull align 8 dereferenceable(8) %4, ptr noundef nonnull %5, ptr noundef nonnull %3)
          to label %19 unwind label %26

19:                                               ; preds = %_ZN7testing7MessagelsIKcEERS0_RKPT_.exit
  %20 = load ptr, ptr %4, align 8, !tbaa !20
  %.not.i.i.i = icmp eq ptr %20, null
  br i1 %.not.i.i.i, label %_ZN7testing7MessageD2Ev.exit, label %21

21:                                               ; preds = %19
  %22 = load ptr, ptr %20, align 8, !tbaa !23
  %23 = getelementptr inbounds nuw i8, ptr %22, i64 8
  %24 = load ptr, ptr %23, align 8
  call void %24(ptr noundef nonnull align 8 dereferenceable(128) %20) #56
  br label %_ZN7testing7MessageD2Ev.exit

_ZN7testing7MessageD2Ev.exit:                     ; preds = %19, %21
  call void @llvm.lifetime.end.p0(i64 8, ptr nonnull %4) #56
  br i1 %18, label %33, label %25

25:                                               ; preds = %_ZN7testing7MessageD2Ev.exit
  call void @exit(i32 noundef 1) #63
  unreachable

26:                                               ; preds = %_ZStlsISt11char_traitsIcEERSt13basic_ostreamIcT_ES5_PKc.exit.i.invoke, %7, %_ZN7testing7MessagelsIKcEERS0_RKPT_.exit
  %27 = landingpad { ptr, i32 }
          cleanup
  %28 = load ptr, ptr %4, align 8, !tbaa !20
  %.not.i.i.i7 = icmp eq ptr %28, null
  br i1 %.not.i.i.i7, label %_ZN7testing7MessageD2Ev.exit8, label %29

29:                                               ; preds = %26
  %30 = load ptr, ptr %28, align 8, !tbaa !23
  %31 = getelementptr inbounds nuw i8, ptr %30, i64 8
  %32 = load ptr, ptr %31, align 8
  call void %32(ptr noundef nonnull align 8 dereferenceable(128) %28) #56
  br label %_ZN7testing7MessageD2Ev.exit8

_ZN7testing7MessageD2Ev.exit8:                    ; preds = %26, %29
  call void @llvm.lifetime.end.p0(i64 8, ptr nonnull %4) #56
  call void @llvm.lifetime.end.p0(i64 4, ptr nonnull %3) #56
  resume { ptr, i32 } %27

33:                                               ; preds = %_ZN7testing7MessageD2Ev.exit
  %34 = load i32, ptr %3, align 4, !tbaa !18
  call void @llvm.lifetime.end.p0(i64 4, ptr nonnull %3) #56
  br label %35

35:                                               ; preds = %2, %33
  %.0 = phi i32 [ %34, %33 ], [ %1, %2 ]
  ret i32 %.0
}